; Function Attrs: mustprogress nofree nosync nounwind willreturn memory(read, inaccessiblemem: none) uwtable
define zeroext i8 @pg_tolower(i8 noundef zeroext %0) local_unnamed_addr #2 {
  %2 = add i8 %0, -65
  %or.cond = icmp ult i8 %2, 26
  br i1 %or.cond, label %3, label %5

3:                                                ; preds = %1
  %4 = or disjoint i8 %0, 32
  br label %19

5:                                                ; preds = %1
  %.not = icmp sgt i8 %0, -1
  br i1 %.not, label %19, label %6

6:                                                ; preds = %5
  %7 = tail call ptr @__ctype_b_loc() #4
  %8 = load ptr, ptr %7, align 8
  %9 = zext i8 %0 to i64
  %10 = getelementptr inbounds nuw i16, ptr %8, i64 %9
  %11 = load i16, ptr %10, align 2
  %12 = and i16 %11, 256
  %.not12 = icmp eq i16 %12, 0
  br i1 %.not12, label %19, label %13

13:                                               ; preds = %6
  %14 = tail call ptr @__ctype_tolower_loc() #4
  %15 = load ptr, ptr %14, align 8
  %16 = getelementptr inbounds nuw i32, ptr %15, i64 %9
  %17 = load i32, ptr %16, align 4
  %18 = trunc i32 %17 to i8
  br label %19

19:                                               ; preds = %5, %6, %13, %3
  %.0 = phi i8 [ %4, %3 ], [ %18, %13 ], [ %0, %6 ], [ %0, %5 ]
  ret i8 %.0
}